; Function Attrs: nounwind uwtable
define internal i32 @mem_read(ptr noundef %0, ptr noundef writeonly captures(address_is_null) %1, i32 noundef %2) #1 {
  %4 = getelementptr inbounds nuw i8, ptr %0, i64 64
  %5 = load ptr, ptr %4, align 8, !tbaa !3
  %6 = getelementptr inbounds nuw i8, ptr %0, i64 48
  %7 = load i32, ptr %6, align 8, !tbaa !28
  %8 = lshr i32 %7, 6
  %9 = and i32 %8, 8
  %10 = xor i32 %9, 8
  %spec.select.idx = zext nneg i32 %10 to i64
  %spec.select = getelementptr inbounds nuw i8, ptr %5, i64 %spec.select.idx
  %.0 = load ptr, ptr %spec.select, align 8, !tbaa !31
  tail call void @BIO_clear_flags(ptr noundef %0, i32 noundef 15) #7
  %11 = icmp sgt i32 %2, -1
  %.pre = load i64, ptr %.0, align 8, !tbaa !22
  br i1 %11, label %12, label %.thread

12:                                               ; preds = %3
  %13 = zext nneg i32 %2 to i64
  %spec.select3335 = tail call i64 @llvm.umin.i64(i64 %.pre, i64 %13)
  %spec.select33 = trunc nuw nsw i64 %spec.select3335 to i32
  %14 = icmp ne ptr %1, null
  %15 = icmp ne i64 %spec.select3335, 0
  %or.cond = select i1 %14, i1 %15, i1 false
  br i1 %or.cond, label %16, label %.thread

16:                                               ; preds = %12
  %17 = getelementptr inbounds nuw i8, ptr %.0, i64 8
  %18 = load ptr, ptr %17, align 8, !tbaa !20
  tail call void @llvm.memcpy.p0.p0.i64(ptr nonnull align 1 %1, ptr align 1 %18, i64 %spec.select3335, i1 false)
  %19 = load i64, ptr %.0, align 8, !tbaa !22
  %20 = sub i64 %19, %spec.select3335
  store i64 %20, ptr %.0, align 8, !tbaa !22
  %21 = getelementptr inbounds nuw i8, ptr %.0, i64 16
  %22 = load i64, ptr %21, align 8, !tbaa !23
  %23 = sub i64 %22, %spec.select3335
  store i64 %23, ptr %21, align 8, !tbaa !23
  %24 = load ptr, ptr %17, align 8, !tbaa !20
  %25 = getelementptr inbounds nuw i8, ptr %24, i64 %spec.select3335
  store ptr %25, ptr %17, align 8, !tbaa !20
  br label %32

.thread:                                          ; preds = %3, %12
  %26 = phi i32 [ %spec.select33, %12 ], [ %2, %3 ]
  %27 = icmp eq i64 %.pre, 0
  br i1 %27, label %28, label %32

28:                                               ; preds = %.thread
  %29 = getelementptr inbounds nuw i8, ptr %0, i64 56
  %30 = load i32, ptr %29, align 8, !tbaa !29
  %.not32 = icmp eq i32 %30, 0
  br i1 %.not32, label %32, label %31

31:                                               ; preds = %28
  tail call void @BIO_set_flags(ptr noundef nonnull %0, i32 noundef 9) #7
  br label %32

32:                                               ; preds = %.thread, %31, %28, %16
  %.026 = phi i32 [ %spec.select33, %16 ], [ %30, %31 ], [ 0, %28 ], [ %26, %.thread ]
  ret i32 %.026
}